; Function Attrs: mustprogress nounwind uwtable
define hidden void @_ZN17ThreadsListHandleC2EP6Thread(ptr noundef nonnull align 8 dereferenceable(56) %0, ptr noundef %1) unnamed_addr #1 align 2 {
  store ptr null, ptr %0, align 8
  %3 = getelementptr inbounds i8, ptr %0, i64 8
  store ptr %1, ptr %3, align 8
  %4 = getelementptr inbounds i8, ptr %0, i64 16
  store ptr null, ptr %4, align 8
  %5 = getelementptr inbounds i8, ptr %0, i64 24
  store i8 0, ptr %5, align 8
  %6 = getelementptr inbounds i8, ptr %0, i64 25
  store i8 1, ptr %6, align 1
  %7 = getelementptr inbounds i8, ptr %1, i64 392
  %8 = load ptr, ptr %7, align 8
  store ptr %8, ptr %0, align 8
  store ptr %0, ptr %7, align 8
  %9 = load ptr, ptr %3, align 8
  %10 = getelementptr inbounds i8, ptr %9, i64 384
  %11 = load volatile ptr, ptr %10, align 8
  tail call void asm sideeffect "", "~{memory},~{dirflag},~{fpsr},~{flags}"() #15, !srcloc !6
  %12 = icmp eq ptr %11, null
  %13 = load ptr, ptr %0, align 8
  %14 = icmp eq ptr %13, null
  %or.cond.i.i = select i1 %12, i1 %14, i1 false
  br i1 %or.cond.i.i, label %.preheader.i.i, label %28

.preheader.i.i:                                   ; preds = %2, %.preheader.i.i.backedge
  %15 = load volatile ptr, ptr @_ZN17ThreadsSMRSupport17_java_thread_listE, align 8
  tail call void asm sideeffect "", "~{memory},~{dirflag},~{fpsr},~{flags}"() #15, !srcloc !6
  %16 = ptrtoint ptr %15 to i64
  %17 = or i64 %16, 1
  %18 = inttoptr i64 %17 to ptr
  %19 = load ptr, ptr %3, align 8
  %20 = getelementptr inbounds i8, ptr %19, i64 384
  %21 = tail call ptr asm sideeffect "xchgq ($2), $0", "=r,0,r,~{memory},~{dirflag},~{fpsr},~{flags}"(ptr nonnull %18, ptr nonnull %20) #15, !srcloc !7
  %22 = load volatile ptr, ptr @_ZN17ThreadsSMRSupport17_java_thread_listE, align 8
  tail call void asm sideeffect "", "~{memory},~{dirflag},~{fpsr},~{flags}"() #15, !srcloc !6
  %.not.i.i.i = icmp eq ptr %22, %15
  br i1 %.not.i.i.i, label %23, label %.preheader.i.i.backedge

23:                                               ; preds = %.preheader.i.i
  %24 = load ptr, ptr %3, align 8
  %25 = getelementptr inbounds i8, ptr %24, i64 384
  %26 = tail call noundef ptr asm sideeffect "lock cmpxchgq $1,($3)", "={ax},r,{ax},r,~{cc},~{memory},~{dirflag},~{fpsr},~{flags}"(ptr %15, ptr nonnull %18, ptr nonnull %25) #15, !srcloc !8
  %27 = icmp eq ptr %26, %18
  br i1 %27, label %_ZN18SafeThreadsListPtr29acquire_stable_list_fast_pathEv.exit.i.i, label %.preheader.i.i.backedge

.preheader.i.i.backedge:                          ; preds = %23, %.preheader.i.i
  br label %.preheader.i.i, !llvm.loop !9

_ZN18SafeThreadsListPtr29acquire_stable_list_fast_pathEv.exit.i.i: ; preds = %23
  store ptr %15, ptr %4, align 8
  br label %_ZN18SafeThreadsListPtrC2EP6Threadb.exit

28:                                               ; preds = %2
  tail call void @_ZN18SafeThreadsListPtr31acquire_stable_list_nested_pathEv(ptr noundef nonnull align 8 dereferenceable(26) %0)
  br label %_ZN18SafeThreadsListPtrC2EP6Threadb.exit

_ZN18SafeThreadsListPtrC2EP6Threadb.exit:         ; preds = %_ZN18SafeThreadsListPtr29acquire_stable_list_fast_pathEv.exit.i.i, %28
  %29 = getelementptr inbounds i8, ptr %0, i64 32
  %30 = getelementptr inbounds i8, ptr %0, i64 48
  store i8 0, ptr %30, align 8
  store i64 0, ptr %29, align 8
  %31 = load i8, ptr @EnableThreadSMRStatistics, align 1
  %32 = trunc i8 %31 to i1
  br i1 %32, label %33, label %34

33:                                               ; preds = %_ZN18SafeThreadsListPtrC2EP6Threadb.exit
  tail call void @_ZN12elapsedTimer5startEv(ptr noundef nonnull align 8 dereferenceable(17) %29) #15
  br label %34

34:                                               ; preds = %33, %_ZN18SafeThreadsListPtrC2EP6Threadb.exit
  ret void
}